target datalayout = "e-m:e-p270:32:32-p271:32:32-p272:64:64-i64:64-i128:128-f80:128-n8:16:32:64-S128"
target triple = "x86_64-pc-linux-gnu"

%struct.aiMaterialProperty = type { %struct.aiString, i32, i32, i32, i32, ptr }
%struct.aiString = type { i32, [1024 x i8] }

@.str = private unnamed_addr constant [18 x i8] c"Material property\00", align 1
@.str.3 = private unnamed_addr constant [29 x i8] c" was found, but is no string\00", align 1

; Function Attrs: mustprogress uwtable
define i32 @aiGetMaterialString(ptr noundef %0, ptr noundef %1, i32 noundef %2, i32 noundef %3, ptr noundef %4) #3 {
  %6 = alloca i32, align 4
  %7 = alloca ptr, align 8
  %8 = alloca ptr, align 8
  %9 = alloca i32, align 4
  %10 = alloca i32, align 4
  %11 = alloca ptr, align 8
  %12 = alloca ptr, align 8
  %13 = alloca i32, align 4
  store ptr %0, ptr %7, align 8
  store ptr %1, ptr %8, align 8
  store i32 %2, ptr %9, align 4
  store i32 %3, ptr %10, align 4
  store ptr %4, ptr %11, align 8
  call void @llvm.lifetime.start.p0(i64 8, ptr %12) #17
  %14 = load ptr, ptr %7, align 8
  %15 = load ptr, ptr %8, align 8
  %16 = load i32, ptr %9, align 4
  %17 = load i32, ptr %10, align 4
  %18 = call i32 @aiGetMaterialProperty(ptr noundef %14, ptr noundef %15, i32 noundef %16, i32 noundef %17, ptr noundef %12)
  %19 = load ptr, ptr %12, align 8
  %20 = icmp ne ptr %19, null
  br i1 %20, label %22, label %21

21:                                               ; preds = %5
  store i32 -1, ptr %6, align 4
  store i32 1, ptr %13, align 4
  br label %49

22:                                               ; preds = %5
  %23 = load ptr, ptr %12, align 8
  %24 = getelementptr inbounds nuw %struct.aiMaterialProperty, ptr %23, i32 0, i32 4
  %25 = load i32, ptr %24, align 8
  %26 = icmp eq i32 3, %25
  br i1 %26, label %27, label %46

27:                                               ; preds = %22
  %28 = load ptr, ptr %12, align 8
  %29 = getelementptr inbounds nuw %struct.aiMaterialProperty, ptr %28, i32 0, i32 5
  %30 = load ptr, ptr %29, align 8
  %31 = load i32, ptr %30, align 4
  %32 = load ptr, ptr %11, align 8
  %33 = getelementptr inbounds nuw %struct.aiString, ptr %32, i32 0, i32 0
  store i32 %31, ptr %33, align 4
  %34 = load ptr, ptr %11, align 8
  %35 = getelementptr inbounds nuw %struct.aiString, ptr %34, i32 0, i32 1
  %36 = getelementptr inbounds [1024 x i8], ptr %35, i64 0, i64 0
  %37 = load ptr, ptr %12, align 8
  %38 = getelementptr inbounds nuw %struct.aiMaterialProperty, ptr %37, i32 0, i32 5
  %39 = load ptr, ptr %38, align 8
  %40 = getelementptr inbounds i8, ptr %39, i64 4
  %41 = load ptr, ptr %11, align 8
  %42 = getelementptr inbounds nuw %struct.aiString, ptr %41, i32 0, i32 0
  %43 = load i32, ptr %42, align 4
  %44 = add i32 %43, 1
  %45 = zext i32 %44 to i64
  call void @llvm.memcpy.p0.p0.i64(ptr align 4 %36, ptr align 1 %40, i64 %45, i1 false)
  br label %48

46:                                               ; preds = %22
  %47 = call noundef ptr @_ZN6Assimp13DefaultLogger3getEv()
  call void @_ZN6Assimp6Logger5errorIJRA18_KcRPS2_RA29_S2_EEEvDpOT_(ptr noundef nonnull align 8 dereferenceable(12) %47, ptr noundef nonnull align 1 dereferenceable(18) @.str, ptr noundef nonnull align 8 dereferenceable(8) %8, ptr noundef nonnull align 1 dereferenceable(29) @.str.3)
  store i32 -1, ptr %6, align 4
  store i32 1, ptr %13, align 4
  br label %49

48:                                               ; preds = %27
  store i32 0, ptr %6, align 4
  store i32 1, ptr %13, align 4
  br label %49

49:                                               ; preds = %48, %46, %21
  call void @llvm.lifetime.end.p0(i64 8, ptr %12) #17
  %50 = load i32, ptr %6, align 4
  ret i32 %50
}