; Function Attrs: mustprogress uwtable
define range(i32 -1, 1) i32 @aiGetMaterialString(ptr noundef readonly captures(none) %0, ptr noundef %1, i32 noundef %2, i32 noundef %3, ptr noundef writeonly captures(none) %4) local_unnamed_addr #3 {
  %6 = alloca ptr, align 8
  %7 = alloca ptr, align 8
  store ptr %1, ptr %6, align 8
  call void @llvm.lifetime.start.p0(i64 8, ptr nonnull %7) #24
  %8 = call i32 @aiGetMaterialProperty(ptr noundef %0, ptr noundef %1, i32 noundef %2, i32 noundef %3, ptr noundef nonnull %7)
  %9 = load ptr, ptr %7, align 8
  %.not = icmp eq ptr %9, null
  br i1 %.not, label %25, label %10

10:                                               ; preds = %5
  %11 = getelementptr inbounds nuw i8, ptr %9, i64 1040
  %12 = load i32, ptr %11, align 8
  %13 = icmp eq i32 %12, 3
  br i1 %13, label %14, label %23

14:                                               ; preds = %10
  %15 = getelementptr inbounds nuw i8, ptr %9, i64 1048
  %16 = load ptr, ptr %15, align 8
  %17 = load i32, ptr %16, align 4
  store i32 %17, ptr %4, align 4
  %18 = getelementptr inbounds nuw i8, ptr %4, i64 4
  %19 = load ptr, ptr %15, align 8
  %20 = getelementptr inbounds nuw i8, ptr %19, i64 4
  %21 = add i32 %17, 1
  %22 = zext i32 %21 to i64
  tail call void @llvm.memcpy.p0.p0.i64(ptr nonnull align 4 %18, ptr nonnull align 1 %20, i64 %22, i1 false)
  br label %25

23:                                               ; preds = %10
  %24 = tail call noundef ptr @_ZN6Assimp13DefaultLogger3getEv()
  call void @_ZN6Assimp6Logger5errorIJRA18_KcRPS2_RA29_S2_EEEvDpOT_(ptr noundef nonnull align 8 dereferenceable(12) %24, ptr noundef nonnull align 1 dereferenceable(18) @.str, ptr noundef nonnull align 8 dereferenceable(8) %6, ptr noundef nonnull align 1 dereferenceable(29) @.str.3)
  br label %25

25:                                               ; preds = %5, %14, %23
  %.0 = phi i32 [ 0, %14 ], [ -1, %23 ], [ -1, %5 ]
  call void @llvm.lifetime.end.p0(i64 8, ptr nonnull %7) #24
  ret i32 %.0
}